target datalayout = "e-m:e-p270:32:32-p271:32:32-p272:64:64-i64:64-i128:128-f80:128-n8:16:32:64-S128"
target triple = "x86_64-pc-linux-gnu"

%struct.__loadu_ps = type { <4 x float> }
%struct.stbir__contributors = type { i32, i32 }
%struct.__mm_storel_epi64_struct = type { i64 }

; Function Attrs: alwaysinline nounwind uwtable
define available_externally void @_mm_storel_epi64(ptr noundef %0, <2 x i64> noundef %1) #2 {
  %3 = alloca ptr, align 8
  %4 = alloca <2 x i64>, align 16
  store ptr %0, ptr %3, align 8, !tbaa !3
  store <2 x i64> %1, ptr %4, align 16, !tbaa !12
  %5 = load <2 x i64>, ptr %4, align 16, !tbaa !12
  %6 = extractelement <2 x i64> %5, i32 0
  %7 = load ptr, ptr %3, align 8, !tbaa !3
  %8 = getelementptr inbounds nuw %struct.__mm_storel_epi64_struct, ptr %7, i32 0, i32 0
  store i64 %6, ptr %8, align 1, !tbaa !12
  ret void
}

; Function Attrs: alwaysinline nounwind uwtable
define available_externally <4 x float> @_mm_add_ps(<4 x float> noundef %0, <4 x float> noundef %1) #2 {
  %3 = alloca <4 x float>, align 16
  %4 = alloca <4 x float>, align 16
  store <4 x float> %0, ptr %3, align 16, !tbaa !12
  store <4 x float> %1, ptr %4, align 16, !tbaa !12
  %5 = load <4 x float>, ptr %3, align 16, !tbaa !12
  %6 = load <4 x float>, ptr %4, align 16, !tbaa !12
  %7 = fadd <4 x float> %5, %6
  ret <4 x float> %7
}

; Function Attrs: alwaysinline nounwind uwtable
define available_externally <4 x float> @_mm_mul_ps(<4 x float> noundef %0, <4 x float> noundef %1) #2 {
  %3 = alloca <4 x float>, align 16
  %4 = alloca <4 x float>, align 16
  store <4 x float> %0, ptr %3, align 16, !tbaa !12
  store <4 x float> %1, ptr %4, align 16, !tbaa !12
  %5 = load <4 x float>, ptr %3, align 16, !tbaa !12
  %6 = load <4 x float>, ptr %4, align 16, !tbaa !12
  %7 = fmul <4 x float> %5, %6
  ret <4 x float> %7
}

; Function Attrs: alwaysinline nounwind uwtable
define available_externally <4 x float> @_mm_castsi128_ps(<2 x i64> noundef %0) #2 {
  %2 = alloca <2 x i64>, align 16
  store <2 x i64> %0, ptr %2, align 16, !tbaa !12
  %3 = load <2 x i64>, ptr %2, align 16, !tbaa !12
  %4 = bitcast <2 x i64> %3 to <4 x float>
  ret <4 x float> %4
}

; Function Attrs: alwaysinline nounwind uwtable
define available_externally <2 x i64> @_mm_castps_si128(<4 x float> noundef %0) #2 {
  %2 = alloca <4 x float>, align 16
  store <4 x float> %0, ptr %2, align 16, !tbaa !12
  %3 = load <4 x float>, ptr %2, align 16, !tbaa !12
  %4 = bitcast <4 x float> %3 to <2 x i64>
  ret <2 x i64> %4
}

; Function Attrs: alwaysinline nounwind uwtable
define available_externally <4 x float> @_mm_loadu_ps(ptr noundef %0) #2 {
  %2 = alloca ptr, align 8
  store ptr %0, ptr %2, align 8, !tbaa !21
  %3 = load ptr, ptr %2, align 8, !tbaa !21
  %4 = getelementptr inbounds nuw %struct.__loadu_ps, ptr %3, i32 0, i32 0
  %5 = load <4 x float>, ptr %4, align 1, !tbaa !12
  ret <4 x float> %5
}

; Function Attrs: nounwind uwtable
define void @stbir__horizontal_gather_2_channels_with_8_coeffs(ptr noundef %0, i32 noundef %1, ptr noundef %2, ptr noundef %3, ptr noundef %4, i32 noundef %5) #0 {
  %7 = alloca ptr, align 8
  %8 = alloca i32, align 4
  %9 = alloca ptr, align 8
  %10 = alloca ptr, align 8
  %11 = alloca ptr, align 8
  %12 = alloca i32, align 4
  %13 = alloca ptr, align 8
  %14 = alloca ptr, align 8
  %15 = alloca ptr, align 8
  %16 = alloca ptr, align 8
  %17 = alloca <4 x float>, align 16
  %18 = alloca <4 x float>, align 16
  %19 = alloca <4 x float>, align 16
  %20 = alloca <4 x float>, align 16
  store ptr %0, ptr %7, align 8, !tbaa !21
  store i32 %1, ptr %8, align 4, !tbaa !26
  store ptr %2, ptr %9, align 8, !tbaa !21
  store ptr %3, ptr %10, align 8, !tbaa !3
  store ptr %4, ptr %11, align 8, !tbaa !21
  store i32 %5, ptr %12, align 4, !tbaa !26
  call void @llvm.lifetime.start.p0(i64 8, ptr %13) #12
  %21 = load ptr, ptr %7, align 8, !tbaa !21
  %22 = load i32, ptr %8, align 4, !tbaa !26
  %23 = mul i32 %22, 2
  %24 = zext i32 %23 to i64
  %25 = getelementptr inbounds nuw float, ptr %21, i64 %24
  store ptr %25, ptr %13, align 8, !tbaa !21
  call void @llvm.lifetime.start.p0(i64 8, ptr %14) #12
  %26 = load ptr, ptr %7, align 8, !tbaa !21
  store ptr %26, ptr %14, align 8, !tbaa !21
  br label %27

27:                                               ; preds = %114, %6
  call void @llvm.lifetime.start.p0(i64 8, ptr %15) #12
  %28 = load ptr, ptr %9, align 8, !tbaa !21
  %29 = load ptr, ptr %10, align 8, !tbaa !3
  %30 = getelementptr inbounds nuw %struct.stbir__contributors, ptr %29, i32 0, i32 0
  %31 = load i32, ptr %30, align 4, !tbaa !41
  %32 = mul nsw i32 %31, 2
  %33 = sext i32 %32 to i64
  %34 = getelementptr inbounds float, ptr %28, i64 %33
  store ptr %34, ptr %15, align 8, !tbaa !21
  call void @llvm.lifetime.start.p0(i64 8, ptr %16) #12
  %35 = load ptr, ptr %11, align 8, !tbaa !21
  store ptr %35, ptr %16, align 8, !tbaa !21
  call void @llvm.lifetime.start.p0(i64 16, ptr %17) #12
  call void @llvm.lifetime.start.p0(i64 16, ptr %18) #12
  call void @llvm.lifetime.start.p0(i64 16, ptr %19) #12
  call void @llvm.lifetime.start.p0(i64 16, ptr %20) #12
  %36 = load ptr, ptr %15, align 8, !tbaa !21
  call void asm sideeffect "", "r,~{dirflag},~{fpsr},~{flags}"(ptr %36) #12, !srcloc !599
  %37 = load ptr, ptr %16, align 8, !tbaa !21
  %38 = call <4 x float> @_mm_loadu_ps(ptr noundef %37)
  store <4 x float> %38, ptr %20, align 16, !tbaa !12
  %39 = load <4 x float>, ptr %20, align 16, !tbaa !12
  %40 = call <2 x i64> @_mm_castps_si128(<4 x float> noundef %39)
  %41 = bitcast <2 x i64> %40 to <4 x i32>
  %42 = shufflevector <4 x i32> %41, <4 x i32> poison, <4 x i32> <i32 0, i32 0, i32 1, i32 1>
  %43 = bitcast <4 x i32> %42 to <2 x i64>
  %44 = call <4 x float> @_mm_castsi128_ps(<2 x i64> noundef %43)
  store <4 x float> %44, ptr %19, align 16, !tbaa !12
  %45 = load <4 x float>, ptr %19, align 16, !tbaa !12
  %46 = load ptr, ptr %15, align 8, !tbaa !21
  %47 = call <4 x float> @_mm_loadu_ps(ptr noundef %46)
  %48 = call <4 x float> @_mm_mul_ps(<4 x float> noundef %45, <4 x float> noundef %47)
  store <4 x float> %48, ptr %17, align 16, !tbaa !12
  %49 = load <4 x float>, ptr %20, align 16, !tbaa !12
  %50 = call <2 x i64> @_mm_castps_si128(<4 x float> noundef %49)
  %51 = bitcast <2 x i64> %50 to <4 x i32>
  %52 = shufflevector <4 x i32> %51, <4 x i32> poison, <4 x i32> <i32 2, i32 2, i32 3, i32 3>
  %53 = bitcast <4 x i32> %52 to <2 x i64>
  %54 = call <4 x float> @_mm_castsi128_ps(<2 x i64> noundef %53)
  store <4 x float> %54, ptr %19, align 16, !tbaa !12
  %55 = load <4 x float>, ptr %19, align 16, !tbaa !12
  %56 = load ptr, ptr %15, align 8, !tbaa !21
  %57 = getelementptr inbounds float, ptr %56, i64 4
  %58 = call <4 x float> @_mm_loadu_ps(ptr noundef %57)
  %59 = call <4 x float> @_mm_mul_ps(<4 x float> noundef %55, <4 x float> noundef %58)
  store <4 x float> %59, ptr %18, align 16, !tbaa !12
  %60 = load ptr, ptr %15, align 8, !tbaa !21
  call void asm sideeffect "", "r,~{dirflag},~{fpsr},~{flags}"(ptr %60) #12, !srcloc !600
  %61 = load ptr, ptr %16, align 8, !tbaa !21
  %62 = getelementptr inbounds float, ptr %61, i64 4
  %63 = call <4 x float> @_mm_loadu_ps(ptr noundef %62)
  store <4 x float> %63, ptr %20, align 16, !tbaa !12
  %64 = load <4 x float>, ptr %20, align 16, !tbaa !12
  %65 = call <2 x i64> @_mm_castps_si128(<4 x float> noundef %64)
  %66 = bitcast <2 x i64> %65 to <4 x i32>
  %67 = shufflevector <4 x i32> %66, <4 x i32> poison, <4 x i32> <i32 0, i32 0, i32 1, i32 1>
  %68 = bitcast <4 x i32> %67 to <2 x i64>
  %69 = call <4 x float> @_mm_castsi128_ps(<2 x i64> noundef %68)
  store <4 x float> %69, ptr %19, align 16, !tbaa !12
  %70 = load <4 x float>, ptr %17, align 16, !tbaa !12
  %71 = load <4 x float>, ptr %19, align 16, !tbaa !12
  %72 = load ptr, ptr %15, align 8, !tbaa !21
  %73 = getelementptr inbounds float, ptr %72, i64 8
  %74 = call <4 x float> @_mm_loadu_ps(ptr noundef %73)
  %75 = call <4 x float> @_mm_mul_ps(<4 x float> noundef %71, <4 x float> noundef %74)
  %76 = call <4 x float> @_mm_add_ps(<4 x float> noundef %70, <4 x float> noundef %75)
  store <4 x float> %76, ptr %17, align 16, !tbaa !12
  %77 = load <4 x float>, ptr %20, align 16, !tbaa !12
  %78 = call <2 x i64> @_mm_castps_si128(<4 x float> noundef %77)
  %79 = bitcast <2 x i64> %78 to <4 x i32>
  %80 = shufflevector <4 x i32> %79, <4 x i32> poison, <4 x i32> <i32 2, i32 2, i32 3, i32 3>
  %81 = bitcast <4 x i32> %80 to <2 x i64>
  %82 = call <4 x float> @_mm_castsi128_ps(<2 x i64> noundef %81)
  store <4 x float> %82, ptr %19, align 16, !tbaa !12
  %83 = load <4 x float>, ptr %18, align 16, !tbaa !12
  %84 = load <4 x float>, ptr %19, align 16, !tbaa !12
  %85 = load ptr, ptr %15, align 8, !tbaa !21
  %86 = getelementptr inbounds float, ptr %85, i64 8
  %87 = getelementptr inbounds float, ptr %86, i64 4
  %88 = call <4 x float> @_mm_loadu_ps(ptr noundef %87)
  %89 = call <4 x float> @_mm_mul_ps(<4 x float> noundef %84, <4 x float> noundef %88)
  %90 = call <4 x float> @_mm_add_ps(<4 x float> noundef %83, <4 x float> noundef %89)
  store <4 x float> %90, ptr %18, align 16, !tbaa !12
  %91 = load <4 x float>, ptr %17, align 16, !tbaa !12
  %92 = load <4 x float>, ptr %18, align 16, !tbaa !12
  %93 = call <4 x float> @_mm_add_ps(<4 x float> noundef %91, <4 x float> noundef %92)
  store <4 x float> %93, ptr %17, align 16, !tbaa !12
  %94 = load <4 x float>, ptr %17, align 16, !tbaa !12
  %95 = call <2 x i64> @_mm_castps_si128(<4 x float> noundef %94)
  %96 = bitcast <2 x i64> %95 to <4 x i32>
  %97 = shufflevector <4 x i32> %96, <4 x i32> poison, <4 x i32> <i32 2, i32 3, i32 0, i32 1>
  %98 = bitcast <4 x i32> %97 to <2 x i64>
  %99 = call <4 x float> @_mm_castsi128_ps(<2 x i64> noundef %98)
  store <4 x float> %99, ptr %19, align 16, !tbaa !12
  %100 = load <4 x float>, ptr %17, align 16, !tbaa !12
  %101 = load <4 x float>, ptr %19, align 16, !tbaa !12
  %102 = call <4 x float> @_mm_add_ps(<4 x float> noundef %100, <4 x float> noundef %101)
  store <4 x float> %102, ptr %17, align 16, !tbaa !12
  %103 = load ptr, ptr %14, align 8, !tbaa !21
  %104 = load <4 x float>, ptr %17, align 16, !tbaa !12
  %105 = call <2 x i64> @_mm_castps_si128(<4 x float> noundef %104)
  call void @_mm_storel_epi64(ptr noundef %103, <2 x i64> noundef %105)
  %106 = load i32, ptr %12, align 4, !tbaa !26
  %107 = load ptr, ptr %11, align 8, !tbaa !21
  %108 = sext i32 %106 to i64
  %109 = getelementptr inbounds float, ptr %107, i64 %108
  store ptr %109, ptr %11, align 8, !tbaa !21
  %110 = load ptr, ptr %10, align 8, !tbaa !3
  %111 = getelementptr inbounds nuw %struct.stbir__contributors, ptr %110, i32 1
  store ptr %111, ptr %10, align 8, !tbaa !3
  %112 = load ptr, ptr %14, align 8, !tbaa !21
  %113 = getelementptr inbounds float, ptr %112, i64 2
  store ptr %113, ptr %14, align 8, !tbaa !21
  call void @llvm.lifetime.end.p0(i64 16, ptr %20) #12
  call void @llvm.lifetime.end.p0(i64 16, ptr %19) #12
  call void @llvm.lifetime.end.p0(i64 16, ptr %18) #12
  call void @llvm.lifetime.end.p0(i64 16, ptr %17) #12
  call void @llvm.lifetime.end.p0(i64 8, ptr %16) #12
  call void @llvm.lifetime.end.p0(i64 8, ptr %15) #12
  br label %114

114:                                              ; preds = %27
  %115 = load ptr, ptr %14, align 8, !tbaa !21
  %116 = load ptr, ptr %13, align 8, !tbaa !21
  %117 = icmp ult ptr %115, %116
  br i1 %117, label %27, label %118, !llvm.loop !601

118:                                              ; preds = %114
  call void @llvm.lifetime.end.p0(i64 8, ptr %14) #12
  call void @llvm.lifetime.end.p0(i64 8, ptr %13) #12
  ret void
}