; Function Attrs: nounwind uwtable
define void @stbir__horizontal_gather_2_channels_with_8_coeffs(ptr noundef writeonly captures(address) %0, i32 noundef %1, ptr noundef %2, ptr noundef readonly captures(none) %3, ptr noundef readonly captures(none) %4, i32 noundef %5) #0 {
  %7 = shl i32 %1, 1
  %8 = zext i32 %7 to i64
  %9 = getelementptr inbounds nuw float, ptr %0, i64 %8
  %10 = sext i32 %5 to i64
  br label %11

11:                                               ; preds = %11, %6
  %.037 = phi ptr [ %0, %6 ], [ %43, %11 ]
  %.036 = phi ptr [ %4, %6 ], [ %41, %11 ]
  %.0 = phi ptr [ %3, %6 ], [ %42, %11 ]
  %12 = load i32, ptr %.0, align 4, !tbaa !34
  %13 = shl nsw i32 %12, 1
  %14 = sext i32 %13 to i64
  %15 = getelementptr inbounds float, ptr %2, i64 %14
  tail call void asm sideeffect "", "r,~{dirflag},~{fpsr},~{flags}"(ptr %15) #24, !srcloc !523
  %16 = load <4 x float>, ptr %.036, align 1, !tbaa !4
  %17 = shufflevector <4 x float> %16, <4 x float> poison, <4 x i32> <i32 0, i32 0, i32 1, i32 1>
  %18 = load <4 x float>, ptr %15, align 1, !tbaa !4
  %19 = fmul <4 x float> %18, %17
  %20 = shufflevector <4 x float> %16, <4 x float> poison, <4 x i32> <i32 2, i32 2, i32 3, i32 3>
  %21 = getelementptr inbounds nuw i8, ptr %15, i64 16
  %22 = load <4 x float>, ptr %21, align 1, !tbaa !4
  %23 = fmul <4 x float> %20, %22
  tail call void asm sideeffect "", "r,~{dirflag},~{fpsr},~{flags}"(ptr nonnull %15) #24, !srcloc !524
  %24 = getelementptr inbounds nuw i8, ptr %.036, i64 16
  %25 = load <4 x float>, ptr %24, align 1, !tbaa !4
  %26 = shufflevector <4 x float> %25, <4 x float> poison, <4 x i32> <i32 0, i32 0, i32 1, i32 1>
  %27 = getelementptr inbounds nuw i8, ptr %15, i64 32
  %28 = load <4 x float>, ptr %27, align 1, !tbaa !4
  %29 = fmul <4 x float> %28, %26
  %30 = fadd <4 x float> %19, %29
  %31 = shufflevector <4 x float> %25, <4 x float> poison, <4 x i32> <i32 2, i32 2, i32 3, i32 3>
  %32 = getelementptr inbounds nuw i8, ptr %15, i64 48
  %33 = load <4 x float>, ptr %32, align 1, !tbaa !4
  %34 = fmul <4 x float> %31, %33
  %35 = fadd <4 x float> %23, %34
  %36 = fadd <4 x float> %30, %35
  %37 = shufflevector <4 x float> %36, <4 x float> poison, <4 x i32> <i32 2, i32 3, i32 poison, i32 poison>
  %38 = fadd <4 x float> %36, %37
  %39 = bitcast <4 x float> %38 to <2 x i64>
  %40 = extractelement <2 x i64> %39, i64 0
  store i64 %40, ptr %.037, align 1, !tbaa !4
  %41 = getelementptr inbounds float, ptr %.036, i64 %10
  %42 = getelementptr inbounds nuw i8, ptr %.0, i64 8
  %43 = getelementptr inbounds nuw i8, ptr %.037, i64 8
  %44 = icmp ult ptr %43, %9
  br i1 %44, label %11, label %45, !llvm.loop !525

45:                                               ; preds = %11
  ret void
}